; Function Attrs: nounwind uwtable
define ptr @l_Lean_Meta_isRflTheorem(ptr noundef %0, ptr noundef %1, ptr noundef %2, ptr noundef %3) local_unnamed_addr #1 {
  tail call void @lean_inc_heartbeat() #6
  %5 = tail call noalias ptr @mi_malloc_small(i64 noundef 32) #6
  %6 = icmp eq ptr %5, null
  br i1 %6, label %7, label %lean_alloc_closure.exit

7:                                                ; preds = %4
  tail call void @lean_internal_panic_out_of_memory() #7
  unreachable

lean_alloc_closure.exit:                          ; preds = %4
  %8 = getelementptr inbounds nuw i8, ptr %5, i64 4
  store i32 1, ptr %5, align 4, !tbaa !4
  store i32 -184549344, ptr %8, align 4
  %9 = getelementptr inbounds nuw i8, ptr %5, i64 8
  store ptr @l___private_Lean_Meta_Tactic_Simp_SimpTheorems_0__Lean_Meta_isRflTheoremCore, ptr %9, align 8, !tbaa !9
  %10 = getelementptr inbounds nuw i8, ptr %5, i64 16
  store i16 4, ptr %10, align 8, !tbaa !16
  %11 = getelementptr inbounds nuw i8, ptr %5, i64 18
  store i16 1, ptr %11, align 2, !tbaa !16
  %12 = getelementptr inbounds nuw i8, ptr %5, i64 24
  store ptr %0, ptr %12, align 8, !tbaa !9
  %13 = tail call ptr @l_Lean_withoutExporting___at_Lean_Meta_isRflTheorem___spec__1(ptr noundef nonnull %5, ptr noundef %1, ptr noundef %2, ptr noundef %3)
  ret ptr %13
}